target datalayout = "e-m:e-p270:32:32-p271:32:32-p272:64:64-i64:64-i128:128-f80:128-n8:16:32:64-S128"
target triple = "x86_64-unknown-linux-gnu"

; Function Attrs: mustprogress nounwind uwtable
define linkonce_odr noundef { i64, i64 } @_ZNSt14numeric_limitsInE3minEv() #4 comdat align 2 {
entry:
  %retval = alloca i128, align 16
  store i128 -170141183460469231731687303715884105728, ptr %retval, align 16
  %0 = load { i64, i64 }, ptr %retval, align 16
  ret { i64, i64 } %0
}

; Function Attrs: mustprogress nounwind uwtable
define linkonce_odr noundef { i64, i64 } @_ZNSt14numeric_limitsInE3maxEv() #4 comdat align 2 {
entry:
  %retval = alloca i128, align 16
  store i128 170141183460469231731687303715884105727, ptr %retval, align 16
  %0 = load { i64, i64 }, ptr %retval, align 16
  ret { i64, i64 } %0
}

; Function Attrs: mustprogress uwtable
define noundef { i64, i64 } @_ZN8facebook5velox7HugeInt5parseERKNSt7__cxx1112basic_stringIcSt11char_traitsIcESaIcEEE(ptr noundef nonnull align 8 dereferenceable(32) %str) #0 align 2 {
entry:
  %retval = alloca i128, align 16
  %str.addr = alloca ptr, align 8
  %result = alloca i128, align 16
  %negative = alloca i8, align 1
  %idx = alloca i64, align 8
  %max = alloca i128, align 16
  %coerce = alloca i128, align 16
  %min = alloca i128, align 16
  %coerce24 = alloca i128, align 16
  %cur = alloca i128, align 16
  %num = alloca i128, align 16
  store ptr %str, ptr %str.addr, align 8
  store i128 0, ptr %result, align 16
  store i8 0, ptr %negative, align 1
  store i64 0, ptr %idx, align 8
  %0 = load ptr, ptr %str.addr, align 8
  %call = call noundef zeroext i1 @_ZNKSt7__cxx1112basic_stringIcSt11char_traitsIcESaIcEE5emptyEv(ptr noundef nonnull align 8 dereferenceable(32) %0) #10
  %lnot = xor i1 %call, true
  %lnot1 = xor i1 %lnot, true
  br i1 %lnot1, label %if.then, label %if.end

if.then:                                          ; preds = %entry
  call void @llvm.trap()
  br label %if.end

if.end:                                           ; preds = %if.then, %entry
  br label %for.cond

for.cond:                                         ; preds = %for.inc, %if.end
  %1 = load i64, ptr %idx, align 8
  %2 = load ptr, ptr %str.addr, align 8
  %call2 = call noundef i64 @_ZNKSt7__cxx1112basic_stringIcSt11char_traitsIcESaIcEE6lengthEv(ptr noundef nonnull align 8 dereferenceable(32) %2) #10
  %cmp = icmp ult i64 %1, %call2
  br i1 %cmp, label %land.rhs, label %land.end

land.rhs:                                         ; preds = %for.cond
  %3 = load ptr, ptr %str.addr, align 8
  %4 = load i64, ptr %idx, align 8
  %call3 = call noundef nonnull align 1 dereferenceable(1) ptr @_ZNKSt7__cxx1112basic_stringIcSt11char_traitsIcESaIcEE2atEm(ptr noundef nonnull align 8 dereferenceable(32) %3, i64 noundef %4)
  %5 = load i8, ptr %call3, align 1
  %conv = sext i8 %5 to i32
  %cmp4 = icmp eq i32 %conv, 32
  br label %land.end

land.end:                                         ; preds = %land.rhs, %for.cond
  %6 = phi i1 [ false, %for.cond ], [ %cmp4, %land.rhs ]
  br i1 %6, label %for.body, label %for.end

for.body:                                         ; preds = %land.end
  br label %for.inc

for.inc:                                          ; preds = %for.body
  %7 = load i64, ptr %idx, align 8
  %inc = add i64 %7, 1
  store i64 %inc, ptr %idx, align 8
  br label %for.cond, !llvm.loop !4

for.end:                                          ; preds = %land.end
  %8 = load i64, ptr %idx, align 8
  %9 = load ptr, ptr %str.addr, align 8
  %call5 = call noundef i64 @_ZNKSt7__cxx1112basic_stringIcSt11char_traitsIcESaIcEE6lengthEv(ptr noundef nonnull align 8 dereferenceable(32) %9) #10
  %cmp6 = icmp ult i64 %8, %call5
  br i1 %cmp6, label %land.lhs.true, label %if.else

land.lhs.true:                                    ; preds = %for.end
  %10 = load ptr, ptr %str.addr, align 8
  %11 = load i64, ptr %idx, align 8
  %call7 = call noundef nonnull align 1 dereferenceable(1) ptr @_ZNKSt7__cxx1112basic_stringIcSt11char_traitsIcESaIcEE2atEm(ptr noundef nonnull align 8 dereferenceable(32) %10, i64 noundef %11)
  %12 = load i8, ptr %call7, align 1
  %conv8 = sext i8 %12 to i32
  %cmp9 = icmp eq i32 %conv8, 43
  br i1 %cmp9, label %if.then10, label %if.else

if.then10:                                        ; preds = %land.lhs.true
  %13 = load i64, ptr %idx, align 8
  %inc11 = add i64 %13, 1
  store i64 %inc11, ptr %idx, align 8
  br label %if.end21

if.else:                                          ; preds = %land.lhs.true, %for.end
  %14 = load i64, ptr %idx, align 8
  %15 = load ptr, ptr %str.addr, align 8
  %call12 = call noundef i64 @_ZNKSt7__cxx1112basic_stringIcSt11char_traitsIcESaIcEE6lengthEv(ptr noundef nonnull align 8 dereferenceable(32) %15) #10
  %cmp13 = icmp ult i64 %14, %call12
  br i1 %cmp13, label %land.lhs.true14, label %if.end20

land.lhs.true14:                                  ; preds = %if.else
  %16 = load ptr, ptr %str.addr, align 8
  %17 = load i64, ptr %idx, align 8
  %call15 = call noundef nonnull align 1 dereferenceable(1) ptr @_ZNKSt7__cxx1112basic_stringIcSt11char_traitsIcESaIcEE2atEm(ptr noundef nonnull align 8 dereferenceable(32) %16, i64 noundef %17)
  %18 = load i8, ptr %call15, align 1
  %conv16 = sext i8 %18 to i32
  %cmp17 = icmp eq i32 %conv16, 45
  br i1 %cmp17, label %if.then18, label %if.end20

if.then18:                                        ; preds = %land.lhs.true14
  %19 = load i64, ptr %idx, align 8
  %inc19 = add i64 %19, 1
  store i64 %inc19, ptr %idx, align 8
  store i8 1, ptr %negative, align 1
  br label %if.end20

if.end20:                                         ; preds = %if.then18, %land.lhs.true14, %if.else
  br label %if.end21

if.end21:                                         ; preds = %if.end20, %if.then10
  %call22 = call noundef { i64, i64 } @_ZNSt14numeric_limitsInE3maxEv() #10
  %20 = getelementptr inbounds { i64, i64 }, ptr %coerce, i32 0, i32 0
  %21 = extractvalue { i64, i64 } %call22, 0
  store i64 %21, ptr %20, align 16
  %22 = getelementptr inbounds { i64, i64 }, ptr %coerce, i32 0, i32 1
  %23 = extractvalue { i64, i64 } %call22, 1
  store i64 %23, ptr %22, align 8
  %24 = load i128, ptr %coerce, align 16
  store i128 %24, ptr %max, align 16
  %call23 = call noundef { i64, i64 } @_ZNSt14numeric_limitsInE3minEv() #10
  %25 = getelementptr inbounds { i64, i64 }, ptr %coerce24, i32 0, i32 0
  %26 = extractvalue { i64, i64 } %call23, 0
  store i64 %26, ptr %25, align 16
  %27 = getelementptr inbounds { i64, i64 }, ptr %coerce24, i32 0, i32 1
  %28 = extractvalue { i64, i64 } %call23, 1
  store i64 %28, ptr %27, align 8
  %29 = load i128, ptr %coerce24, align 16
  store i128 %29, ptr %min, align 16
  br label %for.cond25

for.cond25:                                       ; preds = %for.inc65, %if.end21
  %30 = load i64, ptr %idx, align 8
  %31 = load ptr, ptr %str.addr, align 8
  %call26 = call noundef i64 @_ZNKSt7__cxx1112basic_stringIcSt11char_traitsIcESaIcEE4sizeEv(ptr noundef nonnull align 8 dereferenceable(32) %31) #10
  %cmp27 = icmp ult i64 %30, %call26
  br i1 %cmp27, label %for.body28, label %for.end67

for.body28:                                       ; preds = %for.cond25
  %32 = load ptr, ptr %str.addr, align 8
  %33 = load i64, ptr %idx, align 8
  %call29 = call noundef nonnull align 1 dereferenceable(1) ptr @_ZNKSt7__cxx1112basic_stringIcSt11char_traitsIcESaIcEEixEm(ptr noundef nonnull align 8 dereferenceable(32) %32, i64 noundef %33) #10
  %34 = load i8, ptr %call29, align 1
  %conv30 = sext i8 %34 to i32
  %call31 = call i32 @isdigit(i32 noundef %conv30) #11
  %tobool = icmp ne i32 %call31, 0
  %lnot32 = xor i1 %tobool, true
  br i1 %lnot32, label %if.then34, label %if.end35

if.then34:                                        ; preds = %for.body28
  call void @llvm.trap()
  br label %if.end35

if.end35:                                         ; preds = %if.then34, %for.body28
  %35 = load ptr, ptr %str.addr, align 8
  %36 = load i64, ptr %idx, align 8
  %call36 = call noundef nonnull align 1 dereferenceable(1) ptr @_ZNKSt7__cxx1112basic_stringIcSt11char_traitsIcESaIcEEixEm(ptr noundef nonnull align 8 dereferenceable(32) %35, i64 noundef %36) #10
  %37 = load i8, ptr %call36, align 1
  %conv37 = sext i8 %37 to i32
  %sub = sub nsw i32 %conv37, 48
  %conv38 = sext i32 %sub to i128
  store i128 %conv38, ptr %cur, align 16
  %38 = load i128, ptr %result, align 16
  %39 = load i128, ptr %max, align 16
  %div = sdiv i128 %39, 10
  %cmp39 = icmp sgt i128 %38, %div
  br i1 %cmp39, label %if.then40, label %if.end41

if.then40:                                        ; preds = %if.end35
  call void @llvm.trap()
  br label %if.end41

if.end41:                                         ; preds = %if.then40, %if.end35
  %40 = load i128, ptr %cur, align 16
  %41 = load i128, ptr %max, align 16
  %rem = srem i128 %41, 10
  %sub42 = sub nsw i128 %40, %rem
  store i128 %sub42, ptr %num, align 16
  %42 = load i128, ptr %result, align 16
  %43 = load i128, ptr %max, align 16
  %div43 = sdiv i128 %43, 10
  %cmp44 = icmp eq i128 %42, %div43
  br i1 %cmp44, label %if.then45, label %if.end64

if.then45:                                        ; preds = %if.end41
  %44 = load i8, ptr %negative, align 1
  %tobool46 = trunc i8 %44 to i1
  br i1 %tobool46, label %if.then47, label %if.else55

if.then47:                                        ; preds = %if.then45
  %45 = load i128, ptr %num, align 16
  %cmp48 = icmp sgt i128 %45, 1
  br i1 %cmp48, label %if.then49, label %if.else50

if.then49:                                        ; preds = %if.then47
  call void @llvm.trap()
  br label %if.end54

if.else50:                                        ; preds = %if.then47
  %46 = load i128, ptr %num, align 16
  %cmp51 = icmp eq i128 %46, 1
  br i1 %cmp51, label %if.then52, label %if.end53

if.then52:                                        ; preds = %if.else50
  %47 = load i128, ptr %min, align 16
  store i128 %47, ptr %retval, align 16
  br label %return

if.end53:                                         ; preds = %if.else50
  br label %if.end54

if.end54:                                         ; preds = %if.end53, %if.then49
  br label %if.end63

if.else55:                                        ; preds = %if.then45
  %48 = load i128, ptr %num, align 16
  %cmp56 = icmp sgt i128 %48, 0
  br i1 %cmp56, label %if.then57, label %if.else58

if.then57:                                        ; preds = %if.else55
  call void @llvm.trap()
  br label %if.end62

if.else58:                                        ; preds = %if.else55
  %49 = load i128, ptr %num, align 16
  %cmp59 = icmp eq i128 %49, 0
  br i1 %cmp59, label %if.then60, label %if.end61

if.then60:                                        ; preds = %if.else58
  %50 = load i128, ptr %max, align 16
  store i128 %50, ptr %retval, align 16
  br label %return

if.end61:                                         ; preds = %if.else58
  br label %if.end62

if.end62:                                         ; preds = %if.end61, %if.then57
  br label %if.end63

if.end63:                                         ; preds = %if.end62, %if.end54
  br label %if.end64

if.end64:                                         ; preds = %if.end63, %if.end41
  %51 = load i128, ptr %result, align 16
  %mul = mul nsw i128 %51, 10
  %52 = load i128, ptr %cur, align 16
  %add = add nsw i128 %mul, %52
  store i128 %add, ptr %result, align 16
  br label %for.inc65

for.inc65:                                        ; preds = %if.end64
  %53 = load i64, ptr %idx, align 8
  %inc66 = add i64 %53, 1
  store i64 %inc66, ptr %idx, align 8
  br label %for.cond25, !llvm.loop !6

for.end67:                                        ; preds = %for.cond25
  %54 = load i8, ptr %negative, align 1
  %tobool68 = trunc i8 %54 to i1
  br i1 %tobool68, label %cond.true, label %cond.false

cond.true:                                        ; preds = %for.end67
  %55 = load i128, ptr %result, align 16
  %sub69 = sub nsw i128 0, %55
  br label %cond.end

cond.false:                                       ; preds = %for.end67
  %56 = load i128, ptr %result, align 16
  br label %cond.end

cond.end:                                         ; preds = %cond.false, %cond.true
  %cond = phi i128 [ %sub69, %cond.true ], [ %56, %cond.false ]
  store i128 %cond, ptr %retval, align 16
  br label %return

return:                                           ; preds = %cond.end, %if.then60, %if.then52
  %57 = load { i64, i64 }, ptr %retval, align 16
  ret { i64, i64 } %57
}