; Function Attrs: mustprogress uwtable
define noundef { i64, i64 } @_ZN8facebook5velox7HugeInt5parseERKNSt7__cxx1112basic_stringIcSt11char_traitsIcESaIcEEE(ptr noundef nonnull align 8 dereferenceable(32) %str) local_unnamed_addr #0 align 2 {
entry:
  %call = tail call noundef zeroext i1 @_ZNKSt7__cxx1112basic_stringIcSt11char_traitsIcESaIcEE5emptyEv(ptr noundef nonnull align 8 dereferenceable(32) %str) #8
  br i1 %call, label %if.then, label %for.cond.preheader

for.cond.preheader:                               ; preds = %entry
  %call246 = tail call noundef i64 @_ZNKSt7__cxx1112basic_stringIcSt11char_traitsIcESaIcEE6lengthEv(ptr noundef nonnull align 8 dereferenceable(32) %str) #8
  %cmp47.not = icmp eq i64 %call246, 0
  br i1 %cmp47.not, label %for.end, label %land.rhs

if.then:                                          ; preds = %entry
  tail call void @llvm.trap()
  unreachable

land.rhs:                                         ; preds = %for.cond.preheader, %for.inc
  %idx.048 = phi i64 [ %inc, %for.inc ], [ 0, %for.cond.preheader ]
  %call3 = tail call noundef nonnull align 1 dereferenceable(1) ptr @_ZNKSt7__cxx1112basic_stringIcSt11char_traitsIcESaIcEE2atEm(ptr noundef nonnull align 8 dereferenceable(32) %str, i64 noundef %idx.048)
  %0 = load i8, ptr %call3, align 1
  %cmp4 = icmp eq i8 %0, 32
  br i1 %cmp4, label %for.inc, label %for.end

for.inc:                                          ; preds = %land.rhs
  %inc = add nuw i64 %idx.048, 1
  %call2 = tail call noundef i64 @_ZNKSt7__cxx1112basic_stringIcSt11char_traitsIcESaIcEE6lengthEv(ptr noundef nonnull align 8 dereferenceable(32) %str) #8
  %cmp = icmp ult i64 %inc, %call2
  br i1 %cmp, label %land.rhs, label %for.end, !llvm.loop !4

for.end:                                          ; preds = %land.rhs, %for.inc, %for.cond.preheader
  %idx.0.lcssa = phi i64 [ 0, %for.cond.preheader ], [ %inc, %for.inc ], [ %idx.048, %land.rhs ]
  %call5 = tail call noundef i64 @_ZNKSt7__cxx1112basic_stringIcSt11char_traitsIcESaIcEE6lengthEv(ptr noundef nonnull align 8 dereferenceable(32) %str) #8
  %cmp6 = icmp ult i64 %idx.0.lcssa, %call5
  br i1 %cmp6, label %land.lhs.true, label %if.else

land.lhs.true:                                    ; preds = %for.end
  %call7 = tail call noundef nonnull align 1 dereferenceable(1) ptr @_ZNKSt7__cxx1112basic_stringIcSt11char_traitsIcESaIcEE2atEm(ptr noundef nonnull align 8 dereferenceable(32) %str, i64 noundef %idx.0.lcssa)
  %1 = load i8, ptr %call7, align 1
  %cmp9 = icmp eq i8 %1, 43
  br i1 %cmp9, label %if.then10, label %if.else

if.then10:                                        ; preds = %land.lhs.true
  %inc11 = add nuw i64 %idx.0.lcssa, 1
  br label %if.end21

if.else:                                          ; preds = %land.lhs.true, %for.end
  %call12 = tail call noundef i64 @_ZNKSt7__cxx1112basic_stringIcSt11char_traitsIcESaIcEE6lengthEv(ptr noundef nonnull align 8 dereferenceable(32) %str) #8
  %cmp13 = icmp ult i64 %idx.0.lcssa, %call12
  br i1 %cmp13, label %land.lhs.true14, label %if.end21

land.lhs.true14:                                  ; preds = %if.else
  %call15 = tail call noundef nonnull align 1 dereferenceable(1) ptr @_ZNKSt7__cxx1112basic_stringIcSt11char_traitsIcESaIcEE2atEm(ptr noundef nonnull align 8 dereferenceable(32) %str, i64 noundef %idx.0.lcssa)
  %2 = load i8, ptr %call15, align 1
  %.fr = freeze i8 %2
  %cmp17 = icmp eq i8 %.fr, 45
  %inc19 = zext i1 %cmp17 to i64
  %spec.select = add nuw i64 %idx.0.lcssa, %inc19
  br label %if.end21

if.end21:                                         ; preds = %land.lhs.true14, %if.else, %if.then10
  %idx.1 = phi i64 [ %inc11, %if.then10 ], [ %idx.0.lcssa, %if.else ], [ %spec.select, %land.lhs.true14 ]
  %negative.0 = phi i1 [ false, %if.then10 ], [ false, %if.else ], [ %cmp17, %land.lhs.true14 ]
  %call2650 = tail call noundef i64 @_ZNKSt7__cxx1112basic_stringIcSt11char_traitsIcESaIcEE4sizeEv(ptr noundef nonnull align 8 dereferenceable(32) %str) #8
  %cmp2751 = icmp ult i64 %idx.1, %call2650
  br i1 %cmp2751, label %for.body28.lr.ph, label %for.end67

for.body28.lr.ph:                                 ; preds = %if.end21
  br i1 %negative.0, label %for.body28.us, label %for.body28

for.body28.us:                                    ; preds = %for.body28.lr.ph, %if.end64.us
  %result.053.us = phi i128 [ %add.us, %if.end64.us ], [ 0, %for.body28.lr.ph ]
  %idx.252.us = phi i64 [ %inc66.us, %if.end64.us ], [ %idx.1, %for.body28.lr.ph ]
  %call29.us = tail call noundef nonnull align 1 dereferenceable(1) ptr @_ZNKSt7__cxx1112basic_stringIcSt11char_traitsIcESaIcEEixEm(ptr noundef nonnull align 8 dereferenceable(32) %str, i64 noundef %idx.252.us) #8
  %3 = load i8, ptr %call29.us, align 1
  %conv30.us = sext i8 %3 to i32
  %4 = add nsw i32 %conv30.us, -58
  %isdigit.us = icmp ult i32 %4, -10
  br i1 %isdigit.us, label %if.then34, label %if.end35.us

if.end35.us:                                      ; preds = %for.body28.us
  %call36.us = tail call noundef nonnull align 1 dereferenceable(1) ptr @_ZNKSt7__cxx1112basic_stringIcSt11char_traitsIcESaIcEEixEm(ptr noundef nonnull align 8 dereferenceable(32) %str, i64 noundef %idx.252.us) #8
  %5 = load i8, ptr %call36.us, align 1
  %conv37.us = sext i8 %5 to i32
  %sub.us = add nsw i32 %conv37.us, -48
  %conv38.us = sext i32 %sub.us to i128
  %cmp39.us = icmp sgt i128 %result.053.us, 17014118346046923173168730371588410572
  br i1 %cmp39.us, label %if.then40, label %if.end41.us

if.end41.us:                                      ; preds = %if.end35.us
  %cmp44.us = icmp eq i128 %result.053.us, 17014118346046923173168730371588410572
  br i1 %cmp44.us, label %if.then45.us, label %if.end64.us

if.then45.us:                                     ; preds = %if.end41.us
  %cmp48.us = icmp sgt i8 %5, 56
  br i1 %cmp48.us, label %if.then49, label %if.else50.us

if.else50.us:                                     ; preds = %if.then45.us
  %cmp51.us = icmp eq i32 %sub.us, 8
  br i1 %cmp51.us, label %return, label %if.end64.us

if.end64.us:                                      ; preds = %if.else50.us, %if.end41.us
  %mul.us = mul nsw i128 %result.053.us, 10
  %add.us = add nsw i128 %mul.us, %conv38.us
  %inc66.us = add nuw i64 %idx.252.us, 1
  %call26.us = tail call noundef i64 @_ZNKSt7__cxx1112basic_stringIcSt11char_traitsIcESaIcEE4sizeEv(ptr noundef nonnull align 8 dereferenceable(32) %str) #8
  %cmp27.us = icmp ult i64 %inc66.us, %call26.us
  br i1 %cmp27.us, label %for.body28.us, label %for.end67, !llvm.loop !6

for.body28:                                       ; preds = %for.body28.lr.ph, %if.end64
  %result.053 = phi i128 [ %add, %if.end64 ], [ 0, %for.body28.lr.ph ]
  %idx.252 = phi i64 [ %inc66, %if.end64 ], [ %idx.1, %for.body28.lr.ph ]
  %call29 = tail call noundef nonnull align 1 dereferenceable(1) ptr @_ZNKSt7__cxx1112basic_stringIcSt11char_traitsIcESaIcEEixEm(ptr noundef nonnull align 8 dereferenceable(32) %str, i64 noundef %idx.252) #8
  %6 = load i8, ptr %call29, align 1
  %conv30 = sext i8 %6 to i32
  %7 = add nsw i32 %conv30, -58
  %isdigit = icmp ult i32 %7, -10
  br i1 %isdigit, label %if.then34, label %if.end35

if.then34:                                        ; preds = %for.body28, %for.body28.us
  tail call void @llvm.trap()
  unreachable

if.end35:                                         ; preds = %for.body28
  %call36 = tail call noundef nonnull align 1 dereferenceable(1) ptr @_ZNKSt7__cxx1112basic_stringIcSt11char_traitsIcESaIcEEixEm(ptr noundef nonnull align 8 dereferenceable(32) %str, i64 noundef %idx.252) #8
  %8 = load i8, ptr %call36, align 1
  %conv37 = sext i8 %8 to i32
  %sub = add nsw i32 %conv37, -48
  %conv38 = sext i32 %sub to i128
  %cmp39 = icmp sgt i128 %result.053, 17014118346046923173168730371588410572
  br i1 %cmp39, label %if.then40, label %if.end41

if.then40:                                        ; preds = %if.end35, %if.end35.us
  tail call void @llvm.trap()
  unreachable

if.end41:                                         ; preds = %if.end35
  %cmp44 = icmp eq i128 %result.053, 17014118346046923173168730371588410572
  br i1 %cmp44, label %if.then45, label %if.end64

if.then45:                                        ; preds = %if.end41
  %cmp56 = icmp sgt i8 %8, 55
  br i1 %cmp56, label %if.then57, label %if.else58

if.then49:                                        ; preds = %if.then45.us
  tail call void @llvm.trap()
  unreachable

if.then57:                                        ; preds = %if.then45
  tail call void @llvm.trap()
  unreachable

if.else58:                                        ; preds = %if.then45
  %cmp59 = icmp eq i32 %sub, 7
  br i1 %cmp59, label %return, label %if.end64

if.end64:                                         ; preds = %if.else58, %if.end41
  %mul = mul nsw i128 %result.053, 10
  %add = add nsw i128 %mul, %conv38
  %inc66 = add nuw i64 %idx.252, 1
  %call26 = tail call noundef i64 @_ZNKSt7__cxx1112basic_stringIcSt11char_traitsIcESaIcEE4sizeEv(ptr noundef nonnull align 8 dereferenceable(32) %str) #8
  %cmp27 = icmp ult i64 %inc66, %call26
  br i1 %cmp27, label %for.body28, label %for.end67, !llvm.loop !6

for.end67:                                        ; preds = %if.end64, %if.end64.us, %if.end21
  %result.0.lcssa = phi i128 [ 0, %if.end21 ], [ %add.us, %if.end64.us ], [ %add, %if.end64 ]
  %sub69 = sub nsw i128 0, %result.0.lcssa
  %cond = select i1 %negative.0, i128 %sub69, i128 %result.0.lcssa
  %retval.sroa.0.0.extract.trunc35 = trunc i128 %cond to i64
  %retval.sroa.4.0.extract.shift38 = lshr i128 %cond, 64
  %retval.sroa.4.0.extract.trunc39 = trunc nuw i128 %retval.sroa.4.0.extract.shift38 to i64
  %9 = insertvalue { i64, i64 } poison, i64 %retval.sroa.0.0.extract.trunc35, 0
  %10 = insertvalue { i64, i64 } %9, i64 %retval.sroa.4.0.extract.trunc39, 1
  br label %return

return:                                           ; preds = %if.else58, %if.else50.us, %for.end67
  %.fca.1.insert.merged = phi { i64, i64 } [ %10, %for.end67 ], [ { i64 0, i64 -9223372036854775808 }, %if.else50.us ], [ { i64 -1, i64 9223372036854775807 }, %if.else58 ]
  ret { i64, i64 } %.fca.1.insert.merged
}